Certificate:
    Data:
        Version: 1 (0x0)
        Serial Number: 4096 (0x1000)
        Signature Algorithm: sha384WithRSAEncryption
        Issuer: C=ES, ST=Gipuzkoa, L=Mondragon, O=MU, OU=MGEP, CN=Ander/emailAddress=ander.carrera@alumni.mondragon.edu
        Validity
            Not Before: Jan 20 11:57:00 2022 GMT
            Not After : Jan 20 11:57:00 2023 GMT
        Subject: C=ES, ST=Gipuzkoa, O=MU, OU=MGEP, CN=Ander/emailAddress=ander.carrera@alumni.mondragon.edu
        Subject Public Key Info:
            Public Key Algorithm: rsaEncryption
                RSA Public-Key: (4096 bit)
                Modulus:
                    00:b7:3c:bd:ea:cc:a0:b4:86:fd:37:05:71:8f:7c:
                    f4:e9:89:eb:ba:e8:83:01:5d:65:a8:c5:24:53:65:
                    00:a0:8a:29:68:3a:30:e5:8c:77:92:5f:97:b9:e6:
                    32:83:5e:1c:c4:82:e1:48:49:50:91:e5:62:22:10:
                    d3:19:0d:95:c6:ff:86:0b:28:30:1d:2f:0e:28:d7:
                    af:07:24:87:7c:e0:ac:ce:f8:20:c8:bb:43:c4:51:
                    2b:35:59:e5:47:d9:a9:e8:81:7a:ad:91:66:f1:d1:
                    b5:70:35:c5:fd:9c:7d:a0:c9:19:15:7c:d9:4d:ed:
                    70:53:ab:3d:95:2a:80:66:0e:90:a2:92:a5:d7:93:
                    40:fe:86:8a:4a:8d:c9:fe:b8:81:18:6f:dc:50:2b:
                    cf:34:4e:7f:53:42:8f:5e:a9:b7:d8:c0:d4:b0:5e:
                    b6:d6:4e:1a:71:7e:fa:c0:e1:59:8f:a9:01:1e:bb:
                    86:d6:71:38:c7:7f:07:73:99:7b:6e:02:38:b1:15:
                    eb:ad:a1:ea:6e:fe:a1:ea:89:49:c7:bc:10:0f:d4:
                    d8:9a:fb:c6:67:35:10:44:2a:6b:f7:16:d6:4f:05:
                    a3:a3:cd:df:0a:12:c3:62:1f:4a:e4:fe:41:bc:ac:
                    34:c1:3a:25:ee:01:41:a3:7a:d5:d2:ff:fc:fc:89:
                    85:7e:80:b2:48:b0:64:45:b8:f4:75:7e:4c:84:81:
                    dc:d9:7d:66:94:9c:0d:d4:e6:cb:f1:fb:20:47:f8:
                    16:be:ea:39:2a:5f:16:bc:51:7d:d8:bc:b5:97:e5:
                    c7:b0:ee:69:bc:c9:e3:e3:45:ca:76:96:8c:6c:01:
                    25:c5:0a:80:ed:eb:86:86:64:ba:f5:c9:a9:cb:c6:
                    ed:61:99:80:76:99:1a:72:ba:2b:1e:15:d4:5b:15:
                    0e:54:4a:13:c5:f6:fb:a7:0e:c2:36:96:54:1c:32:
                    8c:86:38:7c:1e:f9:ea:f3:47:e3:c4:2f:02:ec:46:
                    89:3b:1b:54:b5:8a:30:7d:5f:7f:33:73:28:56:43:
                    bd:67:97:79:57:db:d8:ae:dc:00:a8:6f:4c:3e:33:
                    31:87:6d:2d:18:3d:8e:b3:bb:ac:0f:06:b4:e4:d1:
                    85:fc:4a:e0:06:cb:33:cc:0f:08:9a:3d:2c:cf:69:
                    65:45:cc:44:17:dd:a5:66:72:69:f9:6a:c8:9d:cb:
                    1f:d4:88:37:f2:a8:33:3d:9a:55:ab:da:b8:18:a2:
                    ac:ad:54:9e:4b:23:c3:6b:7e:83:ac:45:dd:91:42:
                    fa:51:cc:ab:74:11:c9:9f:d2:06:3e:b8:ba:b8:27:
                    6b:e3:8c:42:6e:17:5c:7a:ba:be:06:0c:a1:d9:d3:
                    27:01:e5
                Exponent: 65537 (0x10001)
    Signature Algorithm: sha384WithRSAEncryption
         46:eb:a1:1c:1b:d4:12:93:99:f9:ca:70:83:8b:fb:ab:8e:fa:
         c1:91:bf:ce:44:17:03:d2:65:d0:38:5b:66:04:84:62:7b:73:
         2d:69:54:1d:4f:51:0b:86:c0:1c:7c:6c:e5:8f:40:ee:b9:bb:
         7e:b2:b5:19:8f:bf:31:b1:2b:9c:0f:5f:bc:24:d6:78:a8:94:
         fe:7c:3f:bf:49:06:63:f2:51:87:48:43:67:e3:37:1a:00:ce:
         b9:26:fe:60:bd:71:8e:d4:d2:ea:83:c6:07:3b:05:52:d8:45:
         cf:ba:1b:ee:ea:93:fd:b9:bd:e5:e2:37:49:70:8a:87:67:42:
         b7:d7:27:f8:80:1a:be:d8:31:00:13:37:14:1c:ac:c9:43:c7:
         7d:d5:20:00:5b:ae:0c:b3:26:46:c2:f0:46:d4:74:6e:90:90:
         0e:b5:f5:d1:0c:8e:e8:37:00:c4:98:17:74:ac:47:5b:94:8f:
         ed:61:7a:53:f7:cf:36:1d:8d:2a:d7:98:85:b6:14:90:97:4c:
         8a:68:dd:f5:d8:ac:c0:8c:d4:7e:d7:41:bd:eb:71:99:ae:b4:
         c2:2a:36:47:10:1c:05:82:c5:8e:03:64:14:28:eb:00:71:f2:
         1a:4b:f9:79:ea:d7:0f:8b:85:88:20:96:78:5a:9c:cc:75:37:
         7d:b7:f7:57
-----BEGIN CERTIFICATE-----
MIIEiDCCA3ACAhAAMA0GCSqGSIb3DQEBDAUAMIGTMQswCQYDVQQGEwJFUzERMA8G
A1UECAwIR2lwdXprb2ExEjAQBgNVBAcMCU1vbmRyYWdvbjELMAkGA1UECgwCTVUx
DTALBgNVBAsMBE1HRVAxDjAMBgNVBAMMBUFuZGVyMTEwLwYJKoZIhvcNAQkBFiJh
bmRlci5jYXJyZXJhQGFsdW1uaS5tb25kcmFnb24uZWR1MB4XDTIyMDEyMDExNTcw
MFoXDTIzMDEyMDExNTcwMFowfzELMAkGA1UEBhMCRVMxETAPBgNVBAgMCEdpcHV6
a29hMQswCQYDVQQKDAJNVTENMAsGA1UECwwETUdFUDEOMAwGA1UEAwwFQW5kZXIx
MTAvBgkqhkiG9w0BCQEWImFuZGVyLmNhcnJlcmFAYWx1bW5pLm1vbmRyYWdvbi5l
ZHUwggIiMA0GCSqGSIb3DQEBAQUAA4ICDwAwggIKAoICAQC3PL3qzKC0hv03BXGP
fPTpieu66IMBXWWoxSRTZQCgiiloOjDljHeSX5e55jKDXhzEguFISVCR5WIiENMZ
DZXG/4YLKDAdLw4o168HJId84KzO+CDIu0PEUSs1WeVH2anogXqtkWbx0bVwNcX9
nH2gyRkVfNlN7XBTqz2VKoBmDpCikqXXk0D+hopKjcn+uIEYb9xQK880Tn9TQo9e
qbfYwNSwXrbWThpxfvrA4VmPqQEeu4bWcTjHfwdzmXtuAjixFeutoepu/qHqiUnH
vBAP1Nia+8ZnNRBEKmv3FtZPBaOjzd8KEsNiH0rk/kG8rDTBOiXuAUGjetXS//z8
iYV+gLJIsGRFuPR1fkyEgdzZfWaUnA3U5svx+yBH+Ba+6jkqXxa8UX3YvLWX5cew
7mm8yePjRcp2loxsASXFCoDt64aGZLr1yanLxu1hmYB2mRpyuiseFdRbFQ5UShPF
9vunDsI2llQcMoyGOHwe+erzR+PELwLsRok7G1S1ijB9X38zcyhWQ71nl3lX29iu
3ACob0w+MzGHbS0YPY6zu6wPBrTk0YX8SuAGyzPMDwiaPSzPaWVFzEQX3aVmcmn5
asidyx/UiDfyqDM9mlWr2rgYoqytVJ5LI8NrfoOsRd2RQvpRzKt0Ecmf0gY+uLq4
J2vjjEJuF1x6ur4GDKHZ0ycB5QIDAQABMA0GCSqGSIb3DQEBDAUAA4IBAQBG66Ec
G9QSk5n5ynCDi/urjvrBkb/ORBcD0mXQOFtmBIRie3MtaVQdT1ELhsAcfGzlj0Du
ubt+srUZj78xsSucD1+8JNZ4qJT+fD+/SQZj8lGHSENn4zcaAM65Jv5gvXGO1NLq
g8YHOwVS2EXPuhvu6pP9ub3l4jdJcIqHZ0K31yf4gBq+2DEAEzcUHKzJQ8d91SAA
W64MsyZGwvBG1HRukJAOtfXRDI7oNwDEmBd0rEdblI/tYXpT9882HY0q15iFthSQ
l0yKaN312KzAjNR+10G963GZrrTCKjZHEBwFgsWOA2QUKOsAcfIaS/l56tcPi4WI
IJZ4WpzMdTd9t/dX
-----END CERTIFICATE-----
